; Function Attrs: nofree norecurse nosync nounwind memory(readwrite, inaccessiblemem: none) uwtable
define range(i32 -98, 1) i32 @sp_addmod(ptr noundef captures(address_is_null) %0, ptr noundef captures(address_is_null) %1, ptr noundef captures(address_is_null) %2, ptr noundef captures(address) %3) local_unnamed_addr #11 {
  %5 = icmp eq ptr %0, null
  %6 = icmp eq ptr %1, null
  %or.cond = or i1 %5, %6
  %7 = icmp eq ptr %2, null
  %or.cond3 = or i1 %or.cond, %7
  %8 = icmp eq ptr %3, null
  %or.cond5 = or i1 %or.cond3, %8
  br i1 %or.cond5, label %.thread, label %9

9:                                                ; preds = %4
  %10 = load i16, ptr %0, align 8, !tbaa !12
  %11 = icmp ugt i16 %10, 128
  br i1 %11, label %.thread, label %12

12:                                               ; preds = %9
  %13 = load i16, ptr %1, align 8, !tbaa !12
  %14 = icmp ult i16 %13, 129
  br i1 %14, label %15, label %.thread

15:                                               ; preds = %12
  %16 = tail call fastcc i32 @_sp_addmod(ptr noundef nonnull %0, ptr noundef nonnull %1, ptr noundef nonnull %2, ptr noundef nonnull %3)
  br label %.thread

.thread:                                          ; preds = %9, %4, %15, %12
  %.1 = phi i32 [ %16, %15 ], [ -98, %12 ], [ -98, %4 ], [ -98, %9 ]
  ret i32 %.1
}